; Function Attrs: nounwind uwtable
define dso_local i64 @Curl_cf_recv(ptr noundef %0, i32 noundef %1, ptr noundef %2, i64 noundef %3, ptr noundef initializes((0, 4)) %4) local_unnamed_addr #1 {
  store i32 0, ptr %4, align 4, !tbaa !44
  %6 = getelementptr inbounds nuw i8, ptr %0, i64 24
  %7 = load ptr, ptr %6, align 8, !tbaa !56
  %8 = getelementptr inbounds nuw i8, ptr %7, i64 608
  %9 = sext i32 %1 to i64
  %10 = getelementptr inbounds [2 x ptr], ptr %8, i64 0, i64 %9
  %.01620 = load ptr, ptr %10, align 8, !tbaa !51
  %.not21 = icmp eq ptr %.01620, null
  br i1 %.not21, label %.critedge18, label %.lr.ph

.lr.ph:                                           ; preds = %5, %14
  %.01622 = phi ptr [ %.016, %14 ], [ %.01620, %5 ]
  %11 = getelementptr inbounds nuw i8, ptr %.01622, i64 36
  %12 = load i8, ptr %11, align 4
  %13 = and i8 %12, 1
  %.not17 = icmp eq i8 %13, 0
  br i1 %.not17, label %14, label %.critedge

14:                                               ; preds = %.lr.ph
  %15 = getelementptr inbounds nuw i8, ptr %.01622, i64 8
  %.016 = load ptr, ptr %15, align 8, !tbaa !51
  %.not = icmp eq ptr %.016, null
  br i1 %.not, label %.critedge18, label %.lr.ph, !llvm.loop !122

.critedge:                                        ; preds = %.lr.ph
  %16 = load ptr, ptr %.01622, align 8, !tbaa !15
  %17 = getelementptr inbounds nuw i8, ptr %16, i64 80
  %18 = load ptr, ptr %17, align 8, !tbaa !47
  %19 = tail call i64 %18(ptr noundef nonnull %.01622, ptr noundef %0, ptr noundef %2, i64 noundef %3, ptr noundef nonnull %4) #12
  br label %20

.critedge18:                                      ; preds = %14, %5
  tail call void (ptr, ptr, ...) @Curl_failf(ptr noundef %0, ptr noundef nonnull @.str.4) #12
  store i32 2, ptr %4, align 4, !tbaa !44
  br label %20

20:                                               ; preds = %.critedge18, %.critedge
  %.0 = phi i64 [ %19, %.critedge ], [ -1, %.critedge18 ]
  ret i64 %.0
}